target datalayout = "e-m:e-p270:32:32-p271:32:32-p272:64:64-i64:64-i128:128-f80:128-n8:16:32:64-S128"
target triple = "x86_64-pc-linux-gnu"

%"class.google::protobuf::io::CodedInputStream" = type { ptr, ptr, ptr, i32, i32, i32, i8, i8, i32, i32, i32, i32, i32, ptr, ptr }
%"struct.std::pair.2" = type <{ i64, i8, [7 x i8] }>

; Function Attrs: inlinehint mustprogress nounwind uwtable
define linkonce_odr void @_ZN6google8protobuf2io16CodedInputStream7AdvanceEi(ptr noundef nonnull align 8 dereferenceable(80) %0, i32 noundef %1) #8 comdat align 2 {
  %3 = alloca ptr, align 8
  %4 = alloca i32, align 4
  store ptr %0, ptr %3, align 8, !tbaa !3
  store i32 %1, ptr %4, align 4, !tbaa !18
  %5 = load ptr, ptr %3, align 8
  %6 = load i32, ptr %4, align 4, !tbaa !18
  %7 = getelementptr inbounds nuw %"class.google::protobuf::io::CodedInputStream", ptr %5, i32 0, i32 0
  %8 = load ptr, ptr %7, align 8, !tbaa !22
  %9 = sext i32 %6 to i64
  %10 = getelementptr inbounds i8, ptr %8, i64 %9
  store ptr %10, ptr %7, align 8, !tbaa !22
  ret void
}

; Function Attrs: inlinehint mustprogress uwtable
define linkonce_odr noundef zeroext i1 @_ZN6google8protobuf2io16CodedInputStream12ReadVarint64EPm(ptr noundef nonnull align 8 dereferenceable(80) %0, ptr noundef %1) #10 comdat align 2 {
  %3 = alloca i1, align 1
  %4 = alloca ptr, align 8
  %5 = alloca ptr, align 8
  %6 = alloca %"struct.std::pair.2", align 8
  %7 = alloca { i64, i8 }, align 8
  store ptr %0, ptr %4, align 8, !tbaa !3
  store ptr %1, ptr %5, align 8, !tbaa !52
  %8 = load ptr, ptr %4, align 8
  %9 = getelementptr inbounds nuw %"class.google::protobuf::io::CodedInputStream", ptr %8, i32 0, i32 0
  %10 = load ptr, ptr %9, align 8, !tbaa !22
  %11 = getelementptr inbounds nuw %"class.google::protobuf::io::CodedInputStream", ptr %8, i32 0, i32 1
  %12 = load ptr, ptr %11, align 8, !tbaa !23
  %13 = icmp ult ptr %10, %12
  %14 = xor i1 %13, true
  %15 = xor i1 %14, true
  %16 = zext i1 %15 to i64
  %17 = call i64 @llvm.expect.i64(i64 %16, i64 1)
  %18 = icmp ne i64 %17, 0
  br i1 %18, label %19, label %31

19:                                               ; preds = %2
  %20 = getelementptr inbounds nuw %"class.google::protobuf::io::CodedInputStream", ptr %8, i32 0, i32 0
  %21 = load ptr, ptr %20, align 8, !tbaa !22
  %22 = load i8, ptr %21, align 1, !tbaa !29
  %23 = zext i8 %22 to i32
  %24 = icmp slt i32 %23, 128
  br i1 %24, label %25, label %31

25:                                               ; preds = %19
  %26 = getelementptr inbounds nuw %"class.google::protobuf::io::CodedInputStream", ptr %8, i32 0, i32 0
  %27 = load ptr, ptr %26, align 8, !tbaa !22
  %28 = load i8, ptr %27, align 1, !tbaa !29
  %29 = zext i8 %28 to i64
  %30 = load ptr, ptr %5, align 8, !tbaa !52
  store i64 %29, ptr %30, align 8, !tbaa !30
  call void @_ZN6google8protobuf2io16CodedInputStream7AdvanceEi(ptr noundef nonnull align 8 dereferenceable(80) %8, i32 noundef 1)
  store i1 true, ptr %3, align 1
  br label %39

31:                                               ; preds = %19, %2
  call void @llvm.lifetime.start.p0(i64 16, ptr %6) #3
  %32 = call { i64, i8 } @_ZN6google8protobuf2io16CodedInputStream20ReadVarint64FallbackEv(ptr noundef nonnull align 8 dereferenceable(80) %8)
  store { i64, i8 } %32, ptr %7, align 8
  call void @llvm.memcpy.p0.p0.i64(ptr align 8 %6, ptr align 8 %7, i64 9, i1 false)
  %33 = getelementptr inbounds nuw %"struct.std::pair.2", ptr %6, i32 0, i32 0
  %34 = load i64, ptr %33, align 8, !tbaa !54
  %35 = load ptr, ptr %5, align 8, !tbaa !52
  store i64 %34, ptr %35, align 8, !tbaa !30
  %36 = getelementptr inbounds nuw %"struct.std::pair.2", ptr %6, i32 0, i32 1
  %37 = load i8, ptr %36, align 8, !tbaa !56, !range !36, !noundef !37
  %38 = trunc i8 %37 to i1
  store i1 %38, ptr %3, align 1
  call void @llvm.lifetime.end.p0(i64 16, ptr %6) #3
  br label %39

39:                                               ; preds = %31, %25
  %40 = load i1, ptr %3, align 1
  ret i1 %40
}

; Function Attrs: mustprogress uwtable
define noundef i32 @_ZN6google8protobuf2io16CodedInputStream11ReadTagSlowEv(ptr noundef nonnull align 8 dereferenceable(80) %0) #5 align 2 {
  %2 = alloca i32, align 4
  %3 = alloca ptr, align 8
  %4 = alloca i32, align 4
  %5 = alloca i64, align 8
  %6 = alloca i32, align 4
  store ptr %0, ptr %3, align 8, !tbaa !3
  %7 = load ptr, ptr %3, align 8
  %8 = getelementptr inbounds nuw %"class.google::protobuf::io::CodedInputStream", ptr %7, i32 0, i32 0
  %9 = load ptr, ptr %8, align 8, !tbaa !22
  %10 = getelementptr inbounds nuw %"class.google::protobuf::io::CodedInputStream", ptr %7, i32 0, i32 1
  %11 = load ptr, ptr %10, align 8, !tbaa !23
  %12 = icmp eq ptr %9, %11
  br i1 %12, label %13, label %37

13:                                               ; preds = %1
  %14 = call noundef zeroext i1 @_ZN6google8protobuf2io16CodedInputStream7RefreshEv(ptr noundef nonnull align 8 dereferenceable(80) %7)
  br i1 %14, label %36, label %15

15:                                               ; preds = %13
  call void @llvm.lifetime.start.p0(i64 4, ptr %4) #3
  %16 = getelementptr inbounds nuw %"class.google::protobuf::io::CodedInputStream", ptr %7, i32 0, i32 3
  %17 = load i32, ptr %16, align 8, !tbaa !21
  %18 = getelementptr inbounds nuw %"class.google::protobuf::io::CodedInputStream", ptr %7, i32 0, i32 9
  %19 = load i32, ptr %18, align 4, !tbaa !16
  %20 = sub nsw i32 %17, %19
  store i32 %20, ptr %4, align 4, !tbaa !18
  %21 = load i32, ptr %4, align 4, !tbaa !18
  %22 = getelementptr inbounds nuw %"class.google::protobuf::io::CodedInputStream", ptr %7, i32 0, i32 10
  %23 = load i32, ptr %22, align 8, !tbaa !38
  %24 = icmp sge i32 %21, %23
  br i1 %24, label %25, label %33

25:                                               ; preds = %15
  %26 = getelementptr inbounds nuw %"class.google::protobuf::io::CodedInputStream", ptr %7, i32 0, i32 8
  %27 = load i32, ptr %26, align 8, !tbaa !24
  %28 = getelementptr inbounds nuw %"class.google::protobuf::io::CodedInputStream", ptr %7, i32 0, i32 10
  %29 = load i32, ptr %28, align 8, !tbaa !38
  %30 = icmp eq i32 %27, %29
  %31 = getelementptr inbounds nuw %"class.google::protobuf::io::CodedInputStream", ptr %7, i32 0, i32 6
  %32 = zext i1 %30 to i8
  store i8 %32, ptr %31, align 4, !tbaa !25
  br label %35

33:                                               ; preds = %15
  %34 = getelementptr inbounds nuw %"class.google::protobuf::io::CodedInputStream", ptr %7, i32 0, i32 6
  store i8 1, ptr %34, align 4, !tbaa !25
  br label %35

35:                                               ; preds = %33, %25
  store i32 0, ptr %2, align 4
  call void @llvm.lifetime.end.p0(i64 4, ptr %4) #3
  br label %44

36:                                               ; preds = %13
  br label %37

37:                                               ; preds = %36, %1
  call void @llvm.lifetime.start.p0(i64 8, ptr %5) #3
  store i64 0, ptr %5, align 8, !tbaa !30
  %38 = call noundef zeroext i1 @_ZN6google8protobuf2io16CodedInputStream12ReadVarint64EPm(ptr noundef nonnull align 8 dereferenceable(80) %7, ptr noundef %5)
  br i1 %38, label %40, label %39

39:                                               ; preds = %37
  store i32 0, ptr %2, align 4
  store i32 1, ptr %6, align 4
  br label %43

40:                                               ; preds = %37
  %41 = load i64, ptr %5, align 8, !tbaa !30
  %42 = trunc i64 %41 to i32
  store i32 %42, ptr %2, align 4
  store i32 1, ptr %6, align 4
  br label %43

43:                                               ; preds = %40, %39
  call void @llvm.lifetime.end.p0(i64 8, ptr %5) #3
  br label %44

44:                                               ; preds = %43, %35
  %45 = load i32, ptr %2, align 4
  ret i32 %45
}