; Function Attrs: mustprogress uwtable
define noundef i32 @_ZN6google8protobuf2io16CodedInputStream11ReadTagSlowEv(ptr noundef nonnull align 8 captures(none) dereferenceable(80) %0) local_unnamed_addr #4 align 2 {
  %2 = load ptr, ptr %0, align 8, !tbaa !15
  %3 = getelementptr inbounds nuw i8, ptr %0, i64 8
  %4 = load ptr, ptr %3, align 8, !tbaa !14
  %5 = icmp eq ptr %2, %4
  br i1 %5, label %6, label %24

6:                                                ; preds = %1
  %7 = tail call noundef zeroext i1 @_ZN6google8protobuf2io16CodedInputStream7RefreshEv(ptr noundef nonnull align 8 dereferenceable(80) %0)
  br i1 %7, label %._crit_edge, label %8

._crit_edge:                                      ; preds = %6
  %.pre = load ptr, ptr %0, align 8, !tbaa !15
  %.pre7 = load ptr, ptr %3, align 8, !tbaa !14
  br label %24

8:                                                ; preds = %6
  %9 = getelementptr inbounds nuw i8, ptr %0, i64 24
  %10 = load i32, ptr %9, align 8, !tbaa !20
  %11 = getelementptr inbounds nuw i8, ptr %0, i64 44
  %12 = load i32, ptr %11, align 4, !tbaa !16
  %13 = sub nsw i32 %10, %12
  %14 = getelementptr inbounds nuw i8, ptr %0, i64 48
  %15 = load i32, ptr %14, align 8, !tbaa !32
  %.not = icmp slt i32 %13, %15
  br i1 %.not, label %22, label %16

16:                                               ; preds = %8
  %17 = getelementptr inbounds nuw i8, ptr %0, i64 40
  %18 = load i32, ptr %17, align 8, !tbaa !21
  %19 = icmp eq i32 %18, %15
  %20 = getelementptr inbounds nuw i8, ptr %0, i64 36
  %21 = zext i1 %19 to i8
  store i8 %21, ptr %20, align 4, !tbaa !24
  br label %36

22:                                               ; preds = %8
  %23 = getelementptr inbounds nuw i8, ptr %0, i64 36
  store i8 1, ptr %23, align 4, !tbaa !24
  br label %36

24:                                               ; preds = %._crit_edge, %1
  %25 = phi ptr [ %.pre7, %._crit_edge ], [ %4, %1 ]
  %26 = phi ptr [ %.pre, %._crit_edge ], [ %2, %1 ]
  %27 = icmp ult ptr %26, %25
  br i1 %27, label %28, label %_ZN6google8protobuf2io16CodedInputStream12ReadVarint64EPm.exit, !prof !26

28:                                               ; preds = %24
  %29 = load i8, ptr %26, align 1, !tbaa !27
  %30 = icmp sgt i8 %29, -1
  br i1 %30, label %_ZN6google8protobuf2io16CodedInputStream12ReadVarint64EPm.exit.thread, label %_ZN6google8protobuf2io16CodedInputStream12ReadVarint64EPm.exit

_ZN6google8protobuf2io16CodedInputStream12ReadVarint64EPm.exit.thread: ; preds = %28
  %31 = getelementptr inbounds nuw i8, ptr %26, i64 1
  store ptr %31, ptr %0, align 8, !tbaa !15
  %32 = zext nneg i8 %29 to i32
  br label %36

_ZN6google8protobuf2io16CodedInputStream12ReadVarint64EPm.exit: ; preds = %24, %28
  %33 = tail call { i64, i8 } @_ZN6google8protobuf2io16CodedInputStream20ReadVarint64FallbackEv(ptr noundef nonnull align 8 dereferenceable(80) %0)
  %.fr = freeze { i64, i8 } %33
  %.fca.0.extract.i = extractvalue { i64, i8 } %.fr, 0
  %.fca.1.extract.i = extractvalue { i64, i8 } %.fr, 1
  %34 = trunc i8 %.fca.1.extract.i to i1
  %35 = trunc i64 %.fca.0.extract.i to i32
  %spec.select = select i1 %34, i32 %35, i32 0
  br label %36

36:                                               ; preds = %_ZN6google8protobuf2io16CodedInputStream12ReadVarint64EPm.exit, %_ZN6google8protobuf2io16CodedInputStream12ReadVarint64EPm.exit.thread, %16, %22
  %.0 = phi i32 [ 0, %22 ], [ 0, %16 ], [ %32, %_ZN6google8protobuf2io16CodedInputStream12ReadVarint64EPm.exit.thread ], [ %spec.select, %_ZN6google8protobuf2io16CodedInputStream12ReadVarint64EPm.exit ]
  ret i32 %.0
}